target datalayout = "e-m:e-p270:32:32-p271:32:32-p272:64:64-i64:64-i128:128-f80:128-n8:16:32:64-S128"
target triple = "x86_64-unknown-linux-gnu"

; Function Attrs: mustprogress nounwind uwtable
define internal noundef i32 @_ZL12compareDatesPKvS0_S0_(ptr noundef %0, ptr noundef %left, ptr noundef %right) #2 {
entry:
  %.addr = alloca ptr, align 8
  %left.addr = alloca ptr, align 8
  %right.addr = alloca ptr, align 8
  %l = alloca double, align 8
  %r = alloca double, align 8
  %res = alloca i32, align 4
  store ptr %0, ptr %.addr, align 8
  store ptr %left, ptr %left.addr, align 8
  store ptr %right, ptr %right.addr, align 8
  %1 = load ptr, ptr %left.addr, align 8
  %2 = load double, ptr %1, align 8
  store double %2, ptr %l, align 8
  %3 = load ptr, ptr %right.addr, align 8
  %4 = load double, ptr %3, align 8
  store double %4, ptr %r, align 8
  %5 = load double, ptr %l, align 8
  %6 = load double, ptr %r, align 8
  %cmp = fcmp olt double %5, %6
  br i1 %cmp, label %cond.true, label %cond.false

cond.true:                                        ; preds = %entry
  br label %cond.end

cond.false:                                       ; preds = %entry
  %7 = load double, ptr %l, align 8
  %8 = load double, ptr %r, align 8
  %cmp1 = fcmp oeq double %7, %8
  %cond = select i1 %cmp1, i32 0, i32 1
  br label %cond.end

cond.end:                                         ; preds = %cond.false, %cond.true
  %cond2 = phi i32 [ -1, %cond.true ], [ %cond, %cond.false ]
  store i32 %cond2, ptr %res, align 4
  %9 = load i32, ptr %res, align 4
  ret i32 %9
}