; Function Attrs: mustprogress nofree norecurse nosync nounwind willreturn memory(argmem: read) uwtable
define internal noundef i32 @_ZL12compareDatesPKvS0_S0_(ptr nocapture readnone %0, ptr nocapture noundef readonly %left, ptr nocapture noundef readonly %right) #6 {
entry:
  %1 = load double, ptr %left, align 8
  %2 = load double, ptr %right, align 8
  %cmp = fcmp olt double %1, %2
  %cmp1 = fcmp une double %1, %2
  %cond = zext i1 %cmp1 to i32
  %cond2 = select i1 %cmp, i32 -1, i32 %cond
  ret i32 %cond2
}